; Function Attrs: nounwind uwtable
define hidden zeroext i1 @SDL_CaptureMouse_REAL(i1 noundef zeroext %0) local_unnamed_addr #0 {
  %2 = zext i1 %0 to i8
  %3 = load ptr, ptr getelementptr inbounds nuw (i8, ptr @SDL_mouse, i64 64), align 8
  %.not = icmp eq ptr %3, null
  br i1 %.not, label %4, label %6

4:                                                ; preds = %1
  %5 = tail call zeroext i1 (ptr, ...) @SDL_SetError_REAL(ptr noundef nonnull @.str.19) #13
  br label %14

6:                                                ; preds = %1
  br i1 %0, label %7, label %12

7:                                                ; preds = %6
  %8 = tail call ptr @SDL_GetKeyboardFocus_REAL() #13
  %9 = icmp eq ptr %8, null
  br i1 %9, label %10, label %12

10:                                               ; preds = %7
  %11 = tail call zeroext i1 (ptr, ...) @SDL_SetError_REAL(ptr noundef nonnull @.str.21) #13
  br label %14

12:                                               ; preds = %7, %6
  store i8 %2, ptr getelementptr inbounds nuw (i8, ptr @SDL_mouse, i64 236), align 4
  %13 = tail call zeroext i1 @SDL_UpdateMouseCapture(i1 noundef zeroext false)
  br label %14

14:                                               ; preds = %12, %10, %4
  %.0 = phi i1 [ %11, %10 ], [ %13, %12 ], [ %5, %4 ]
  ret i1 %.0
}